; Function Attrs: nounwind uwtable
define dso_local void @updateReplOffsetAndResetEndOffset() local_unnamed_addr #0 {
  %1 = load i32, ptr getelementptr inbounds nuw (i8, ptr @server, i64 6520), align 8, !tbaa !79
  %.not = icmp eq i32 %1, 1
  br i1 %.not, label %2, label %30

2:                                                ; preds = %0
  %3 = load ptr, ptr getelementptr inbounds nuw (i8, ptr @server, i64 6704), align 8, !tbaa !63
  %.not8 = icmp eq ptr %3, null
  br i1 %.not8, label %4, label %5, !prof !5

4:                                                ; preds = %2
  tail call void @_serverAssert(ptr noundef nonnull @.str.55, ptr noundef nonnull @.str.1, i32 noundef 885) #20
  tail call void @abort() #21
  unreachable

5:                                                ; preds = %2
  %6 = getelementptr inbounds nuw i8, ptr %3, i64 8
  %7 = load ptr, ptr %6, align 8, !tbaa !24
  %8 = getelementptr inbounds nuw i8, ptr %7, i64 40
  %9 = load i64, ptr %8, align 8, !tbaa !73
  %10 = icmp eq i64 %9, 0
  br i1 %10, label %30, label %11

11:                                               ; preds = %5
  %12 = getelementptr inbounds nuw i8, ptr %7, i64 8
  %13 = load ptr, ptr %12, align 8, !tbaa !90
  %14 = getelementptr inbounds nuw i8, ptr %13, i64 16
  %15 = load ptr, ptr %14, align 8, !tbaa !58
  %16 = getelementptr inbounds nuw i8, ptr %15, i64 32
  %17 = load i64, ptr %16, align 8, !tbaa !17
  %.not9 = icmp eq i64 %17, -1
  br i1 %.not9, label %23, label %18

18:                                               ; preds = %11
  store i64 %17, ptr getelementptr inbounds nuw (i8, ptr @server, i64 7064), align 8, !tbaa !74
  store i64 -1, ptr %16, align 8, !tbaa !17
  %19 = getelementptr inbounds nuw i8, ptr %3, i64 40
  store i32 1, ptr %19, align 8, !tbaa !70
  %20 = tail call ptr @getAofManifestAsString(ptr noundef nonnull %3)
  %21 = tail call i32 @writeAofManifestFile(ptr noundef %20)
  tail call void @sdsfree(ptr noundef %20) #20
  %22 = icmp eq i32 %21, 0
  br i1 %22, label %persistAofManifest.exit.thread, label %persistAofManifest.exit

persistAofManifest.exit.thread:                   ; preds = %18
  store i32 0, ptr %19, align 8, !tbaa !70
  br label %30

persistAofManifest.exit:                          ; preds = %18
  tail call void @exit(i32 noundef 1) #23
  unreachable

23:                                               ; preds = %11
  %24 = getelementptr inbounds nuw i8, ptr %15, i64 24
  %25 = load i64, ptr %24, align 8, !tbaa !16
  %26 = icmp eq i64 %25, -1
  %spec.select = select i1 %26, i64 0, i64 %25
  %27 = load ptr, ptr %15, align 8, !tbaa !6
  %28 = tail call i64 @getAppendOnlyFileSize(ptr noundef %27, ptr noundef null)
  %29 = add nsw i64 %spec.select, %28
  store i64 %29, ptr getelementptr inbounds nuw (i8, ptr @server, i64 7064), align 8, !tbaa !74
  br label %30

30:                                               ; preds = %persistAofManifest.exit.thread, %23, %5, %0
  ret void
}